target datalayout = "e-m:e-p270:32:32-p271:32:32-p272:64:64-i64:64-i128:128-f80:128-n8:16:32:64-S128"
target triple = "x86_64-pc-linux-gnu"

%class.symbol = type { ptr }
%class.params_ref = type { ptr }
%class.set_simplifier_cmd = type { %class.parametric_cmd, ptr }
%class.parametric_cmd = type { %class.cmd, %class.symbol, ptr, %class.params_ref, %class.scoped_ptr.106 }
%class.cmd = type { ptr, %class.symbol, i32, i32 }
%class.scoped_ptr.106 = type { ptr }

@.str.40 = private unnamed_addr constant [15 x i8] c"set-simplifier\00", align 1
@_ZTV14parametric_cmd = external unnamed_addr constant { [32 x ptr] }, align 8
@.str.48 = private unnamed_addr constant [16 x i8] c"help-simplifier\00", align 1

; Function Attrs: mustprogress nounwind uwtable
define linkonce_odr hidden void @_ZN3cmdD2Ev(ptr noundef nonnull align 8 dereferenceable(24) %0) unnamed_addr #6 comdat align 2 {
  %2 = alloca ptr, align 8
  store ptr %0, ptr %2, align 8, !tbaa !384
  ret void
}

; Function Attrs: mustprogress nounwind uwtable
define linkonce_odr hidden void @_ZN10scoped_ptrI12param_descrsEC2EPS0_(ptr noundef nonnull align 8 dereferenceable(8) %0, ptr noundef %1) unnamed_addr #6 comdat align 2 {
  %3 = alloca ptr, align 8
  %4 = alloca ptr, align 8
  store ptr %0, ptr %3, align 8, !tbaa !402
  store ptr %1, ptr %4, align 8, !tbaa !244
  %5 = load ptr, ptr %3, align 8
  %6 = getelementptr inbounds nuw %class.scoped_ptr.106, ptr %5, i32 0, i32 0
  %7 = load ptr, ptr %4, align 8, !tbaa !244
  store ptr %7, ptr %6, align 8, !tbaa !404
  ret void
}

; Function Attrs: mustprogress nounwind uwtable
define linkonce_odr hidden void @_ZN10params_refC2Ev(ptr noundef nonnull align 8 dereferenceable(8) %0) unnamed_addr #6 comdat align 2 {
  %2 = alloca ptr, align 8
  store ptr %0, ptr %2, align 8, !tbaa !67
  %3 = load ptr, ptr %2, align 8
  %4 = getelementptr inbounds nuw %class.params_ref, ptr %3, i32 0, i32 0
  store ptr null, ptr %4, align 8, !tbaa !69
  ret void
}

; Function Attrs: mustprogress nounwind uwtable
define linkonce_odr hidden void @_ZN6symbolC2Ev(ptr noundef nonnull align 8 dereferenceable(8) %0) unnamed_addr #6 comdat align 2 {
  %2 = alloca ptr, align 8
  store ptr %0, ptr %2, align 8, !tbaa !14
  %3 = load ptr, ptr %2, align 8
  %4 = getelementptr inbounds nuw %class.symbol, ptr %3, i32 0, i32 0
  store ptr null, ptr %4, align 8, !tbaa !39
  ret void
}

; Function Attrs: mustprogress uwtable
define linkonce_odr hidden void @_ZN3cmdC2EPKc(ptr noundef nonnull align 8 dereferenceable(24) %0, ptr noundef %1) unnamed_addr #4 comdat align 2 {
  %3 = alloca ptr, align 8
  %4 = alloca ptr, align 8
  store ptr %0, ptr %3, align 8, !tbaa !384
  store ptr %1, ptr %4, align 8, !tbaa !22
  %5 = load ptr, ptr %3, align 8
  store ptr getelementptr inbounds inrange(-16, 224) ({ [30 x ptr] }, ptr @_ZTV3cmd, i32 0, i32 0, i32 2), ptr %5, align 8, !tbaa !24
  %6 = getelementptr inbounds nuw %class.cmd, ptr %5, i32 0, i32 1
  %7 = load ptr, ptr %4, align 8, !tbaa !22
  call void @_ZN6symbolC1EPKc(ptr noundef nonnull align 8 dereferenceable(8) %6, ptr noundef %7)
  %8 = getelementptr inbounds nuw %class.cmd, ptr %5, i32 0, i32 2
  store i32 0, ptr %8, align 8, !tbaa !400
  %9 = getelementptr inbounds nuw %class.cmd, ptr %5, i32 0, i32 3
  store i32 0, ptr %9, align 4, !tbaa !401
  ret void
}

; Function Attrs: mustprogress uwtable
define linkonce_odr hidden void @_ZN14parametric_cmdC2EPKc(ptr noundef nonnull align 8 dereferenceable(56) %0, ptr noundef %1) unnamed_addr #4 comdat align 2 personality ptr @__gxx_personality_v0 {
  %3 = alloca ptr, align 8
  %4 = alloca ptr, align 8
  %5 = alloca ptr, align 8
  %6 = alloca i32, align 4
  store ptr %0, ptr %3, align 8, !tbaa !381
  store ptr %1, ptr %4, align 8, !tbaa !22
  %7 = load ptr, ptr %3, align 8
  %8 = load ptr, ptr %4, align 8, !tbaa !22
  call void @_ZN3cmdC2EPKc(ptr noundef nonnull align 8 dereferenceable(24) %7, ptr noundef %8)
  store ptr getelementptr inbounds inrange(-16, 240) ({ [32 x ptr] }, ptr @_ZTV14parametric_cmd, i32 0, i32 0, i32 2), ptr %7, align 8, !tbaa !24
  %9 = getelementptr inbounds nuw %class.parametric_cmd, ptr %7, i32 0, i32 1
  call void @_ZN6symbolC2Ev(ptr noundef nonnull align 8 dereferenceable(8) %9) #3
  %10 = getelementptr inbounds nuw %class.parametric_cmd, ptr %7, i32 0, i32 2
  store ptr null, ptr %10, align 8, !tbaa !383
  %11 = getelementptr inbounds nuw %class.parametric_cmd, ptr %7, i32 0, i32 3
  call void @_ZN10params_refC2Ev(ptr noundef nonnull align 8 dereferenceable(8) %11) #3
  %12 = getelementptr inbounds nuw %class.parametric_cmd, ptr %7, i32 0, i32 4
  invoke void @_ZN10scoped_ptrI12param_descrsEC2EPS0_(ptr noundef nonnull align 8 dereferenceable(8) %12, ptr noundef null)
          to label %13 unwind label %14

13:                                               ; preds = %2
  ret void

14:                                               ; preds = %2
  %15 = landingpad { ptr, i32 }
          cleanup
  %16 = extractvalue { ptr, i32 } %15, 0
  store ptr %16, ptr %5, align 8
  %17 = extractvalue { ptr, i32 } %15, 1
  store i32 %17, ptr %6, align 4
  call void @_ZN10params_refD1Ev(ptr noundef nonnull align 8 dereferenceable(8) %11) #3
  call void @_ZN3cmdD2Ev(ptr noundef nonnull align 8 dereferenceable(24) %7) #3
  br label %18

18:                                               ; preds = %14
  %19 = load ptr, ptr %5, align 8
  %20 = load i32, ptr %6, align 4
  %21 = insertvalue { ptr, i32 } poison, ptr %19, 0
  %22 = insertvalue { ptr, i32 } %21, i32 %20, 1
  resume { ptr, i32 } %22
}

; Function Attrs: mustprogress uwtable
define linkonce_odr hidden void @_ZN19help_simplifier_cmdC2Ev(ptr noundef nonnull align 8 dereferenceable(24) %0) unnamed_addr #4 comdat align 2 {
  %2 = alloca ptr, align 8
  store ptr %0, ptr %2, align 8, !tbaa !106
  %3 = load ptr, ptr %2, align 8
  call void @_ZN3cmdC2EPKc(ptr noundef nonnull align 8 dereferenceable(24) %3, ptr noundef @.str.48)
  store ptr getelementptr inbounds inrange(-16, 224) ({ [30 x ptr] }, ptr @_ZTV19help_simplifier_cmd, i32 0, i32 0, i32 2), ptr %3, align 8, !tbaa !24
  ret void
}

; Function Attrs: mustprogress uwtable
define linkonce_odr hidden void @_ZN18set_simplifier_cmdC2Ev(ptr noundef nonnull align 8 dereferenceable(64) %0) unnamed_addr #4 comdat align 2 {
  %2 = alloca ptr, align 8
  store ptr %0, ptr %2, align 8, !tbaa !97
  %3 = load ptr, ptr %2, align 8
  call void @_ZN14parametric_cmdC2EPKc(ptr noundef nonnull align 8 dereferenceable(56) %3, ptr noundef @.str.40)
  store ptr getelementptr inbounds inrange(-16, 240) ({ [32 x ptr] }, ptr @_ZTV18set_simplifier_cmd, i32 0, i32 0, i32 2), ptr %3, align 8, !tbaa !24
  %4 = getelementptr inbounds nuw %class.set_simplifier_cmd, ptr %3, i32 0, i32 1
  store ptr null, ptr %4, align 8, !tbaa !99
  ret void
}

; Function Attrs: mustprogress uwtable
define hidden void @_Z28install_core_simplifier_cmdsR11cmd_context(ptr noundef nonnull align 8 dereferenceable(896) %0) #4 {
  %2 = alloca ptr, align 8
  store ptr %0, ptr %2, align 8, !tbaa !3
  %3 = load ptr, ptr %2, align 8, !tbaa !3
  %4 = call noalias noundef ptr @_ZN6memory8allocateEm(i64 noundef 64)
  call void @_ZN18set_simplifier_cmdC2Ev(ptr noundef nonnull align 8 dereferenceable(64) %4)
  call void @_ZN11cmd_context6insertEP3cmd(ptr noundef nonnull align 8 dereferenceable(896) %3, ptr noundef %4)
  %5 = load ptr, ptr %2, align 8, !tbaa !3
  %6 = call noalias noundef ptr @_ZN6memory8allocateEm(i64 noundef 24)
  call void @_ZN19help_simplifier_cmdC2Ev(ptr noundef nonnull align 8 dereferenceable(24) %6)
  call void @_ZN11cmd_context6insertEP3cmd(ptr noundef nonnull align 8 dereferenceable(896) %5, ptr noundef %6)
  ret void
}