; Function Attrs: mustprogress uwtable
define hidden void @_Z28install_core_simplifier_cmdsR11cmd_context(ptr noundef nonnull align 8 dereferenceable(896) %0) local_unnamed_addr #3 personality ptr @__gxx_personality_v0 {
  %2 = tail call noalias noundef ptr @_ZN6memory8allocateEm(i64 noundef 64)
  store ptr getelementptr inbounds nuw inrange(-16, 224) (i8, ptr @_ZTV3cmd, i64 16), ptr %2, align 8, !tbaa !19
  %3 = getelementptr inbounds nuw i8, ptr %2, i64 8
  tail call void @_ZN6symbolC1EPKc(ptr noundef nonnull align 8 dereferenceable(8) %3, ptr noundef nonnull @.str.40)
  %4 = getelementptr inbounds nuw i8, ptr %2, i64 16
  tail call void @llvm.memset.p0.i64(ptr noundef nonnull align 8 dereferenceable(40) %4, i8 0, i64 40, i1 false)
  store ptr getelementptr inbounds nuw inrange(-16, 240) (i8, ptr @_ZTV18set_simplifier_cmd, i64 16), ptr %2, align 8, !tbaa !19
  %5 = getelementptr inbounds nuw i8, ptr %2, i64 56
  store ptr null, ptr %5, align 8, !tbaa !138
  tail call void @_ZN11cmd_context6insertEP3cmd(ptr noundef nonnull align 8 dereferenceable(896) %0, ptr noundef nonnull %2)
  %6 = tail call noalias noundef ptr @_ZN6memory8allocateEm(i64 noundef 24)
  store ptr getelementptr inbounds nuw inrange(-16, 224) (i8, ptr @_ZTV3cmd, i64 16), ptr %6, align 8, !tbaa !19
  %7 = getelementptr inbounds nuw i8, ptr %6, i64 8
  tail call void @_ZN6symbolC1EPKc(ptr noundef nonnull align 8 dereferenceable(8) %7, ptr noundef nonnull @.str.48)
  %8 = getelementptr inbounds nuw i8, ptr %6, i64 16
  store i32 0, ptr %8, align 8, !tbaa !146
  %9 = getelementptr inbounds nuw i8, ptr %6, i64 20
  store i32 0, ptr %9, align 4, !tbaa !147
  store ptr getelementptr inbounds nuw inrange(-16, 224) (i8, ptr @_ZTV19help_simplifier_cmd, i64 16), ptr %6, align 8, !tbaa !19
  tail call void @_ZN11cmd_context6insertEP3cmd(ptr noundef nonnull align 8 dereferenceable(896) %0, ptr noundef nonnull %6)
  ret void
}